target datalayout = "e-m:e-p270:32:32-p271:32:32-p272:64:64-i64:64-i128:128-f80:128-n8:16:32:64-S128"
target triple = "x86_64-pc-linux-gnu"

%struct.XML_Memory_Handling_Suite = type { ptr, ptr, ptr }
%struct.XML_ParserStruct = type { ptr, ptr, ptr, %struct.XML_Memory_Handling_Suite, ptr, ptr, ptr, i64, ptr, i64, i8, i32, ptr, ptr, ptr, ptr, ptr, ptr, ptr, ptr, ptr, ptr, ptr, ptr, ptr, ptr, ptr, ptr, ptr, ptr, ptr, ptr, ptr, ptr, ptr, ptr, ptr, ptr, %struct.INIT_ENCODING, ptr, ptr, i8, i8, ptr, ptr, ptr, ptr, %struct.prolog_state, ptr, i32, ptr, ptr, ptr, ptr, ptr, i8, i32, ptr, ptr, ptr, ptr, ptr, ptr, ptr, ptr, ptr, i8, i8, ptr, ptr, ptr, ptr, ptr, ptr, i32, i32, i32, ptr, ptr, i64, i8, %struct.position, %struct.STRING_POOL, %struct.STRING_POOL, ptr, i32, i8, ptr, %struct.XML_ParsingStatus, i64 }
%struct.INIT_ENCODING = type { %struct.encoding, ptr }
%struct.encoding = type { [3 x ptr], [2 x ptr], ptr, ptr, ptr, ptr, ptr, ptr, ptr, ptr, ptr, ptr, i32, i8, i8 }
%struct.prolog_state = type { ptr, i32, i32 }
%struct.position = type { i64, i64 }
%struct.STRING_POOL = type { ptr, ptr, ptr, ptr, ptr, ptr }
%struct.XML_ParsingStatus = type { i32, i8 }

; Function Attrs: nounwind uwtable
define dso_local i32 @XML_Parse(ptr noundef %0, ptr noundef %1, i32 noundef %2, i32 noundef %3) #0 {
  %5 = alloca i32, align 4
  %6 = alloca ptr, align 8
  %7 = alloca ptr, align 8
  %8 = alloca i32, align 4
  %9 = alloca i32, align 4
  %10 = alloca ptr, align 8
  %11 = alloca i32, align 4
  store ptr %0, ptr %6, align 8, !tbaa !13
  store ptr %1, ptr %7, align 8, !tbaa !4
  store i32 %2, ptr %8, align 4, !tbaa !177
  store i32 %3, ptr %9, align 4, !tbaa !177
  %12 = load ptr, ptr %6, align 8, !tbaa !13
  %13 = icmp eq ptr %12, null
  br i1 %13, label %23, label %14

14:                                               ; preds = %4
  %15 = load i32, ptr %8, align 4, !tbaa !177
  %16 = icmp slt i32 %15, 0
  br i1 %16, label %23, label %17

17:                                               ; preds = %14
  %18 = load ptr, ptr %7, align 8, !tbaa !4
  %19 = icmp eq ptr %18, null
  br i1 %19, label %20, label %30

20:                                               ; preds = %17
  %21 = load i32, ptr %8, align 4, !tbaa !177
  %22 = icmp ne i32 %21, 0
  br i1 %22, label %23, label %30

23:                                               ; preds = %20, %14, %4
  %24 = load ptr, ptr %6, align 8, !tbaa !13
  %25 = icmp ne ptr %24, null
  br i1 %25, label %26, label %29

26:                                               ; preds = %23
  %27 = load ptr, ptr %6, align 8, !tbaa !13
  %28 = getelementptr inbounds nuw %struct.XML_ParserStruct, ptr %27, i32 0, i32 49
  store i32 41, ptr %28, align 8, !tbaa !133
  br label %29

29:                                               ; preds = %26, %23
  store i32 0, ptr %5, align 4
  br label %79

30:                                               ; preds = %20, %17
  %31 = load ptr, ptr %6, align 8, !tbaa !13
  %32 = getelementptr inbounds nuw %struct.XML_ParserStruct, ptr %31, i32 0, i32 88
  %33 = getelementptr inbounds nuw %struct.XML_ParsingStatus, ptr %32, i32 0, i32 0
  %34 = load i32, ptr %33, align 8, !tbaa !140
  switch i32 %34, label %54 [
    i32 3, label %35
    i32 2, label %38
    i32 0, label %41
  ]

35:                                               ; preds = %30
  %36 = load ptr, ptr %6, align 8, !tbaa !13
  %37 = getelementptr inbounds nuw %struct.XML_ParserStruct, ptr %36, i32 0, i32 49
  store i32 33, ptr %37, align 8, !tbaa !133
  store i32 0, ptr %5, align 4
  br label %79

38:                                               ; preds = %30
  %39 = load ptr, ptr %6, align 8, !tbaa !13
  %40 = getelementptr inbounds nuw %struct.XML_ParserStruct, ptr %39, i32 0, i32 49
  store i32 36, ptr %40, align 8, !tbaa !133
  store i32 0, ptr %5, align 4
  br label %79

41:                                               ; preds = %30
  %42 = load ptr, ptr %6, align 8, !tbaa !13
  %43 = getelementptr inbounds nuw %struct.XML_ParserStruct, ptr %42, i32 0, i32 87
  %44 = load ptr, ptr %43, align 8, !tbaa !57
  %45 = icmp eq ptr %44, null
  br i1 %45, label %46, label %53

46:                                               ; preds = %41
  %47 = load ptr, ptr %6, align 8, !tbaa !13
  %48 = call zeroext i8 @startParsing(ptr noundef %47)
  %49 = icmp ne i8 %48, 0
  br i1 %49, label %53, label %50

50:                                               ; preds = %46
  %51 = load ptr, ptr %6, align 8, !tbaa !13
  %52 = getelementptr inbounds nuw %struct.XML_ParserStruct, ptr %51, i32 0, i32 49
  store i32 1, ptr %52, align 8, !tbaa !133
  store i32 0, ptr %5, align 4
  br label %79

53:                                               ; preds = %46, %41
  br label %54

54:                                               ; preds = %30, %53
  %55 = load ptr, ptr %6, align 8, !tbaa !13
  %56 = getelementptr inbounds nuw %struct.XML_ParserStruct, ptr %55, i32 0, i32 88
  %57 = getelementptr inbounds nuw %struct.XML_ParsingStatus, ptr %56, i32 0, i32 0
  store i32 1, ptr %57, align 8, !tbaa !140
  br label %58

58:                                               ; preds = %54
  call void @llvm.lifetime.start.p0(i64 8, ptr %10) #10
  %59 = load ptr, ptr %6, align 8, !tbaa !13
  %60 = load i32, ptr %8, align 4, !tbaa !177
  %61 = call ptr @XML_GetBuffer(ptr noundef %59, i32 noundef %60)
  store ptr %61, ptr %10, align 8, !tbaa !9
  %62 = load ptr, ptr %10, align 8, !tbaa !9
  %63 = icmp eq ptr %62, null
  br i1 %63, label %64, label %65

64:                                               ; preds = %58
  store i32 0, ptr %5, align 4
  store i32 1, ptr %11, align 4
  br label %78

65:                                               ; preds = %58
  %66 = load i32, ptr %8, align 4, !tbaa !177
  %67 = icmp sgt i32 %66, 0
  br i1 %67, label %68, label %73

68:                                               ; preds = %65
  %69 = load ptr, ptr %10, align 8, !tbaa !9
  %70 = load ptr, ptr %7, align 8, !tbaa !4
  %71 = load i32, ptr %8, align 4, !tbaa !177
  %72 = sext i32 %71 to i64
  call void @llvm.memcpy.p0.p0.i64(ptr align 1 %69, ptr align 1 %70, i64 %72, i1 false)
  br label %73

73:                                               ; preds = %68, %65
  %74 = load ptr, ptr %6, align 8, !tbaa !13
  %75 = load i32, ptr %8, align 4, !tbaa !177
  %76 = load i32, ptr %9, align 4, !tbaa !177
  %77 = call i32 @XML_ParseBuffer(ptr noundef %74, i32 noundef %75, i32 noundef %76)
  store i32 %77, ptr %5, align 4
  store i32 1, ptr %11, align 4
  br label %78

78:                                               ; preds = %73, %64
  call void @llvm.lifetime.end.p0(i64 8, ptr %10) #10
  br label %79

79:                                               ; preds = %78, %50, %38, %35, %29
  %80 = load i32, ptr %5, align 4
  ret i32 %80
}